
hwpuzzle_puzzle.elf:     file format elf32-avr

Sections:
Idx Name          Size      VMA       LMA       File off  Algn
  0 .data         00000002  00803800  00000475  00000529  2**0
                  CONTENTS, ALLOC, LOAD, DATA
  1 .text         0000040a  00000000  00000000  000000b4  2**1
                  CONTENTS, ALLOC, LOAD, READONLY, CODE
  2 .rodata       0000006b  0000840a  0000040a  000004be  2**0
                  CONTENTS, ALLOC, LOAD, READONLY, DATA
  3 .bss          00000002  00803802  00803802  0000052b  2**0
                  ALLOC
  4 .comment      00000030  00000000  00000000  0000052b  2**0
                  CONTENTS, READONLY
  5 .note.gnu.avr.deviceinfo 00000040  00000000  00000000  0000055c  2**2
                  CONTENTS, READONLY
  6 .debug_aranges 00000020  00000000  00000000  000005a0  2**3
                  CONTENTS, READONLY, DEBUGGING
  7 .debug_info   00001d97  00000000  00000000  000005c0  2**0
                  CONTENTS, READONLY, DEBUGGING
  8 .debug_abbrev 00001b7e  00000000  00000000  00002357  2**0
                  CONTENTS, READONLY, DEBUGGING
  9 .debug_line   000001b8  00000000  00000000  00003ed5  2**0
                  CONTENTS, READONLY, DEBUGGING
 10 .debug_str    00000be1  00000000  00000000  0000408d  2**0
                  CONTENTS, READONLY, DEBUGGING

Disassembly of section .text:

00000000 <__vectors>:
   0:	0c 94 3e 00 	jmp	0x7c	; 0x7c <__ctors_end>
   4:	0c 94 5b 00 	jmp	0xb6	; 0xb6 <__bad_interrupt>
   8:	0c 94 5b 00 	jmp	0xb6	; 0xb6 <__bad_interrupt>
   c:	0c 94 5b 00 	jmp	0xb6	; 0xb6 <__bad_interrupt>
  10:	0c 94 5b 00 	jmp	0xb6	; 0xb6 <__bad_interrupt>
  14:	0c 94 5b 00 	jmp	0xb6	; 0xb6 <__bad_interrupt>
  18:	0c 94 fc 01 	jmp	0x3f8	; 0x3f8 <__vector_6>
  1c:	0c 94 78 01 	jmp	0x2f0	; 0x2f0 <__vector_7>
  20:	0c 94 5b 00 	jmp	0xb6	; 0xb6 <__bad_interrupt>
  24:	0c 94 5b 00 	jmp	0xb6	; 0xb6 <__bad_interrupt>
  28:	0c 94 5b 00 	jmp	0xb6	; 0xb6 <__bad_interrupt>
  2c:	0c 94 5b 00 	jmp	0xb6	; 0xb6 <__bad_interrupt>
  30:	0c 94 5b 00 	jmp	0xb6	; 0xb6 <__bad_interrupt>
  34:	0c 94 5b 00 	jmp	0xb6	; 0xb6 <__bad_interrupt>
  38:	0c 94 5b 00 	jmp	0xb6	; 0xb6 <__bad_interrupt>
  3c:	0c 94 5b 00 	jmp	0xb6	; 0xb6 <__bad_interrupt>
  40:	0c 94 5b 00 	jmp	0xb6	; 0xb6 <__bad_interrupt>
  44:	0c 94 5b 00 	jmp	0xb6	; 0xb6 <__bad_interrupt>
  48:	0c 94 5b 00 	jmp	0xb6	; 0xb6 <__bad_interrupt>
  4c:	0c 94 5b 00 	jmp	0xb6	; 0xb6 <__bad_interrupt>
  50:	0c 94 5b 00 	jmp	0xb6	; 0xb6 <__bad_interrupt>
  54:	0c 94 5b 00 	jmp	0xb6	; 0xb6 <__bad_interrupt>
  58:	0c 94 5b 00 	jmp	0xb6	; 0xb6 <__bad_interrupt>
  5c:	0c 94 5b 00 	jmp	0xb6	; 0xb6 <__bad_interrupt>
  60:	0c 94 5b 00 	jmp	0xb6	; 0xb6 <__bad_interrupt>
  64:	0c 94 5b 00 	jmp	0xb6	; 0xb6 <__bad_interrupt>
  68:	0c 94 5b 00 	jmp	0xb6	; 0xb6 <__bad_interrupt>
  6c:	0c 94 5b 00 	jmp	0xb6	; 0xb6 <__bad_interrupt>
  70:	0c 94 5b 00 	jmp	0xb6	; 0xb6 <__bad_interrupt>
  74:	0c 94 5b 00 	jmp	0xb6	; 0xb6 <__bad_interrupt>
  78:	0c 94 5b 00 	jmp	0xb6	; 0xb6 <__bad_interrupt>

0000007c <__ctors_end>:
  7c:	11 24       	eor	r1, r1
  7e:	1f be       	out	0x3f, r1	; 63
  80:	cf ef       	ldi	r28, 0xFF	; 255
  82:	cd bf       	out	0x3d, r28	; 61
  84:	df e3       	ldi	r29, 0x3F	; 63
  86:	de bf       	out	0x3e, r29	; 62

00000088 <__do_copy_data>:
  88:	18 e3       	ldi	r17, 0x38	; 56
  8a:	a0 e0       	ldi	r26, 0x00	; 0
  8c:	b8 e3       	ldi	r27, 0x38	; 56
  8e:	e5 e7       	ldi	r30, 0x75	; 117
  90:	f4 e0       	ldi	r31, 0x04	; 4
  92:	02 c0       	rjmp	.+4      	; 0x98 <__do_copy_data+0x10>
  94:	05 90       	lpm	r0, Z+
  96:	0d 92       	st	X+, r0
  98:	a2 30       	cpi	r26, 0x02	; 2
  9a:	b1 07       	cpc	r27, r17
  9c:	d9 f7       	brne	.-10     	; 0x94 <__do_copy_data+0xc>

0000009e <__do_clear_bss>:
  9e:	28 e3       	ldi	r18, 0x38	; 56
  a0:	a2 e0       	ldi	r26, 0x02	; 2
  a2:	b8 e3       	ldi	r27, 0x38	; 56
  a4:	01 c0       	rjmp	.+2      	; 0xa8 <.do_clear_bss_start>

000000a6 <.do_clear_bss_loop>:
  a6:	1d 92       	st	X+, r1

000000a8 <.do_clear_bss_start>:
  a8:	a4 30       	cpi	r26, 0x04	; 4
  aa:	b2 07       	cpc	r27, r18
  ac:	e1 f7       	brne	.-8      	; 0xa6 <.do_clear_bss_loop>
  ae:	0e 94 7e 00 	call	0xfc	; 0xfc <main>
  b2:	0c 94 03 02 	jmp	0x406	; 0x406 <_exit>

000000b6 <__bad_interrupt>:
  b6:	0c 94 00 00 	jmp	0	; 0x0 <__vectors>

000000ba <base_4>:
  ba:	9b 01       	movw	r18, r22
  bc:	2c 5f       	subi	r18, 0xFC	; 252
  be:	3f 4f       	sbci	r19, 0xFF	; 255
  c0:	98 2f       	mov	r25, r24
  c2:	93 70       	andi	r25, 0x03	; 3
  c4:	fb 01       	movw	r30, r22
  c6:	91 93       	st	Z+, r25
  c8:	bf 01       	movw	r22, r30
  ca:	86 95       	lsr	r24
  cc:	86 95       	lsr	r24
  ce:	e2 17       	cp	r30, r18
  d0:	f3 07       	cpc	r31, r19
  d2:	b1 f7       	brne	.-20     	; 0xc0 <base_4+0x6>
  d4:	08 95       	ret

000000d6 <toggle_led>:
  d6:	cf 93       	push	r28
  d8:	df 93       	push	r29
  da:	ec 01       	movw	r28, r24
  dc:	88 81       	ld	r24, Y
  de:	88 23       	and	r24, r24
  e0:	29 f0       	breq	.+10     	; 0xec <toggle_led+0x16>
  e2:	85 e0       	ldi	r24, 0x05	; 5
  e4:	0e 94 cf 01 	call	0x39e	; 0x39e <LED_set>
  e8:	18 82       	st	Y, r1
  ea:	05 c0       	rjmp	.+10     	; 0xf6 <toggle_led+0x20>
  ec:	86 e0       	ldi	r24, 0x06	; 6
  ee:	0e 94 cf 01 	call	0x39e	; 0x39e <LED_set>
  f2:	81 e0       	ldi	r24, 0x01	; 1
  f4:	88 83       	st	Y, r24
  f6:	df 91       	pop	r29
  f8:	cf 91       	pop	r28
  fa:	08 95       	ret

000000fc <main>:
  fc:	cf 93       	push	r28
  fe:	df 93       	push	r29
 100:	cd b7       	in	r28, 0x3d	; 61
 102:	de b7       	in	r29, 0x3e	; 62
 104:	c9 56       	subi	r28, 0x69	; 105
 106:	d1 09       	sbc	r29, r1
 108:	cd bf       	out	0x3d, r28	; 61
 10a:	de bf       	out	0x3e, r29	; 62
 10c:	18 ed       	ldi	r17, 0xD8	; 216
 10e:	a8 95       	wdr
 110:	14 bf       	out	0x34, r17	; 52
 112:	80 91 00 01 	lds	r24, 0x0100	; 0x800100 <CSWTCH.2+0x7f7c92>
 116:	80 7f       	andi	r24, 0xF0	; 240
 118:	80 93 00 01 	sts	0x0100, r24	; 0x800100 <CSWTCH.2+0x7f7c92>
 11c:	60 e0       	ldi	r22, 0x00	; 0
 11e:	81 e6       	ldi	r24, 0x61	; 97
 120:	90 e0       	ldi	r25, 0x00	; 0
 122:	0e 94 fd 01 	call	0x3fa	; 0x3fa <ccp_write_io>
 126:	0e 94 db 01 	call	0x3b6	; 0x3b6 <RTC_init>
 12a:	0e 94 ed 01 	call	0x3da	; 0x3da <RTC_PIT_enable>
 12e:	0e 94 be 01 	call	0x37c	; 0x37c <input_init>
 132:	8f ef       	ldi	r24, 0xFF	; 255
 134:	0e 94 cf 01 	call	0x39e	; 0x39e <LED_set>
 138:	0e 94 cb 01 	call	0x396	; 0x396 <LED_init>
 13c:	a8 95       	wdr
 13e:	14 bf       	out	0x34, r17	; 52
 140:	10 91 00 01 	lds	r17, 0x0100	; 0x800100 <CSWTCH.2+0x7f7c92>
 144:	10 60       	ori	r17, 0x00	; 0
 146:	10 93 00 01 	sts	0x0100, r17	; 0x800100 <CSWTCH.2+0x7f7c92>
 14a:	10 91 01 01 	lds	r17, 0x0101	; 0x800101 <CSWTCH.2+0x7f7c93>
 14e:	11 fd       	sbrc	r17, 1
 150:	fc cf       	rjmp	.-8      	; 0x14a <__EEPROM_REGION_LENGTH__+0x4a>
 152:	8a e0       	ldi	r24, 0x0A	; 10
 154:	ea e0       	ldi	r30, 0x0A	; 10
 156:	f4 e8       	ldi	r31, 0x84	; 132
 158:	de 01       	movw	r26, r28
 15a:	11 96       	adiw	r26, 0x01	; 1
 15c:	01 90       	ld	r0, Z+
 15e:	0d 92       	st	X+, r0
 160:	8a 95       	dec	r24
 162:	e1 f7       	brne	.-8      	; 0x15c <__EEPROM_REGION_LENGTH__+0x5c>
 164:	fe 01       	movw	r30, r28
 166:	3b 96       	adiw	r30, 0x0b	; 11
 168:	8a e5       	ldi	r24, 0x5A	; 90
 16a:	df 01       	movw	r26, r30
 16c:	1d 92       	st	X+, r1
 16e:	8a 95       	dec	r24
 170:	e9 f7       	brne	.-6      	; 0x16c <__EEPROM_REGION_LENGTH__+0x6c>
 172:	aa 96       	adiw	r28, 0x2a	; 42
 174:	1f ae       	std	Y+63, r1	; 0x3f
 176:	aa 97       	sbiw	r28, 0x2a	; 42
 178:	8f ef       	ldi	r24, 0xFF	; 255
 17a:	0e 94 b3 01 	call	0x366	; 0x366 <input_get_key_press>
 17e:	e1 2c       	mov	r14, r1
 180:	d1 2c       	mov	r13, r1
 182:	1f ef       	ldi	r17, 0xFF	; 255
 184:	00 e0       	ldi	r16, 0x00	; 0
 186:	f1 2c       	mov	r15, r1
 188:	a8 95       	wdr
 18a:	84 e0       	ldi	r24, 0x04	; 4
 18c:	0e 94 b3 01 	call	0x366	; 0x366 <input_get_key_press>
 190:	88 23       	and	r24, r24
 192:	41 f0       	breq	.+16     	; 0x1a4 <__EEPROM_REGION_LENGTH__+0xa4>
 194:	8f ef       	ldi	r24, 0xFF	; 255
 196:	0e 94 cf 01 	call	0x39e	; 0x39e <LED_set>
 19a:	e1 2c       	mov	r14, r1
 19c:	d1 2c       	mov	r13, r1
 19e:	1f ef       	ldi	r17, 0xFF	; 255
 1a0:	00 e0       	ldi	r16, 0x00	; 0
 1a2:	0b c0       	rjmp	.+22     	; 0x1ba <__EEPROM_REGION_LENGTH__+0xba>
 1a4:	b1 e0       	ldi	r27, 0x01	; 1
 1a6:	fb 16       	cp	r15, r27
 1a8:	09 f4       	brne	.+2      	; 0x1ac <__EEPROM_REGION_LENGTH__+0xac>
 1aa:	63 c0       	rjmp	.+198    	; 0x272 <__EEPROM_REGION_LENGTH__+0x172>
 1ac:	fb 16       	cp	r15, r27
 1ae:	28 f0       	brcs	.+10     	; 0x1ba <__EEPROM_REGION_LENGTH__+0xba>
 1b0:	82 e0       	ldi	r24, 0x02	; 2
 1b2:	f8 16       	cp	r15, r24
 1b4:	09 f4       	brne	.+2      	; 0x1b8 <__EEPROM_REGION_LENGTH__+0xb8>
 1b6:	4a c0       	rjmp	.+148    	; 0x24c <__EEPROM_REGION_LENGTH__+0x14c>
 1b8:	8b c0       	rjmp	.+278    	; 0x2d0 <__EEPROM_REGION_LENGTH__+0x1d0>
 1ba:	88 e0       	ldi	r24, 0x08	; 8
 1bc:	0e 94 b3 01 	call	0x366	; 0x366 <input_get_key_press>
 1c0:	88 23       	and	r24, r24
 1c2:	09 f4       	brne	.+2      	; 0x1c6 <__EEPROM_REGION_LENGTH__+0xc6>
 1c4:	84 c0       	rjmp	.+264    	; 0x2ce <__EEPROM_REGION_LENGTH__+0x1ce>
 1c6:	ed 14       	cp	r14, r13
 1c8:	60 f4       	brcc	.+24     	; 0x1e2 <__EEPROM_REGION_LENGTH__+0xe2>
 1ca:	8f ef       	ldi	r24, 0xFF	; 255
 1cc:	0e 94 b3 01 	call	0x366	; 0x366 <input_get_key_press>
 1d0:	8f ef       	ldi	r24, 0xFF	; 255
 1d2:	0e 94 cf 01 	call	0x39e	; 0x39e <LED_set>
 1d6:	e1 2c       	mov	r14, r1
 1d8:	1f ef       	ldi	r17, 0xFF	; 255
 1da:	00 e0       	ldi	r16, 0x00	; 0
 1dc:	22 e0       	ldi	r18, 0x02	; 2
 1de:	f2 2e       	mov	r15, r18
 1e0:	77 c0       	rjmp	.+238    	; 0x2d0 <__EEPROM_REGION_LENGTH__+0x1d0>
 1e2:	14 30       	cpi	r17, 0x04	; 4
 1e4:	20 f1       	brcs	.+72     	; 0x22e <__EEPROM_REGION_LENGTH__+0x12e>
 1e6:	8e 2d       	mov	r24, r14
 1e8:	86 95       	lsr	r24
 1ea:	86 95       	lsr	r24
 1ec:	e1 e0       	ldi	r30, 0x01	; 1
 1ee:	f0 e0       	ldi	r31, 0x00	; 0
 1f0:	ec 0f       	add	r30, r28
 1f2:	fd 1f       	adc	r31, r29
 1f4:	e8 0f       	add	r30, r24
 1f6:	f1 1d       	adc	r31, r1
 1f8:	80 81       	ld	r24, Z
 1fa:	81 11       	cpse	r24, r1
 1fc:	08 c0       	rjmp	.+16     	; 0x20e <__EEPROM_REGION_LENGTH__+0x10e>
 1fe:	ce 01       	movw	r24, r28
 200:	87 59       	subi	r24, 0x97	; 151
 202:	9f 4f       	sbci	r25, 0xFF	; 255
 204:	0e 94 6b 00 	call	0xd6	; 0xd6 <toggle_led>
 208:	ff 24       	eor	r15, r15
 20a:	f3 94       	inc	r15
 20c:	61 c0       	rjmp	.+194    	; 0x2d0 <__EEPROM_REGION_LENGTH__+0x1d0>
 20e:	11 e0       	ldi	r17, 0x01	; 1
 210:	10 0f       	add	r17, r16
 212:	e1 e0       	ldi	r30, 0x01	; 1
 214:	f0 e0       	ldi	r31, 0x00	; 0
 216:	ec 0f       	add	r30, r28
 218:	fd 1f       	adc	r31, r29
 21a:	e0 0f       	add	r30, r16
 21c:	f1 1d       	adc	r31, r1
 21e:	be 01       	movw	r22, r28
 220:	6b 59       	subi	r22, 0x9B	; 155
 222:	7f 4f       	sbci	r23, 0xFF	; 255
 224:	80 81       	ld	r24, Z
 226:	0e 94 5d 00 	call	0xba	; 0xba <base_4>
 22a:	01 2f       	mov	r16, r17
 22c:	10 e0       	ldi	r17, 0x00	; 0
 22e:	ff 24       	eor	r15, r15
 230:	f3 94       	inc	r15
 232:	f1 0e       	add	r15, r17
 234:	e5 e6       	ldi	r30, 0x65	; 101
 236:	f0 e0       	ldi	r31, 0x00	; 0
 238:	ec 0f       	add	r30, r28
 23a:	fd 1f       	adc	r31, r29
 23c:	e1 0f       	add	r30, r17
 23e:	f1 1d       	adc	r31, r1
 240:	80 81       	ld	r24, Z
 242:	0e 94 cf 01 	call	0x39e	; 0x39e <LED_set>
 246:	d3 94       	inc	r13
 248:	1f 2d       	mov	r17, r15
 24a:	41 c0       	rjmp	.+130    	; 0x2ce <__EEPROM_REGION_LENGTH__+0x1ce>
 24c:	88 ef       	ldi	r24, 0xF8	; 248
 24e:	0e 94 b3 01 	call	0x366	; 0x366 <input_get_key_press>
 252:	80 32       	cpi	r24, 0x20	; 32
 254:	59 f0       	breq	.+22     	; 0x26c <__EEPROM_REGION_LENGTH__+0x16c>
 256:	18 f4       	brcc	.+6      	; 0x25e <__EEPROM_REGION_LENGTH__+0x15e>
 258:	80 31       	cpi	r24, 0x10	; 16
 25a:	b1 f0       	breq	.+44     	; 0x288 <__EEPROM_REGION_LENGTH__+0x188>
 25c:	39 c0       	rjmp	.+114    	; 0x2d0 <__EEPROM_REGION_LENGTH__+0x1d0>
 25e:	80 34       	cpi	r24, 0x40	; 64
 260:	c9 f1       	breq	.+114    	; 0x2d4 <__EEPROM_REGION_LENGTH__+0x1d4>
 262:	80 38       	cpi	r24, 0x80	; 128
 264:	a9 f5       	brne	.+106    	; 0x2d0 <__EEPROM_REGION_LENGTH__+0x1d0>
 266:	93 e0       	ldi	r25, 0x03	; 3
 268:	c9 2e       	mov	r12, r25
 26a:	0f c0       	rjmp	.+30     	; 0x28a <__EEPROM_REGION_LENGTH__+0x18a>
 26c:	cc 24       	eor	r12, r12
 26e:	c3 94       	inc	r12
 270:	0c c0       	rjmp	.+24     	; 0x28a <__EEPROM_REGION_LENGTH__+0x18a>
 272:	88 e0       	ldi	r24, 0x08	; 8
 274:	0e 94 b3 01 	call	0x366	; 0x366 <input_get_key_press>
 278:	88 23       	and	r24, r24
 27a:	51 f1       	breq	.+84     	; 0x2d0 <__EEPROM_REGION_LENGTH__+0x1d0>
 27c:	ce 01       	movw	r24, r28
 27e:	87 59       	subi	r24, 0x97	; 151
 280:	9f 4f       	sbci	r25, 0xFF	; 255
 282:	0e 94 6b 00 	call	0xd6	; 0xd6 <toggle_led>
 286:	24 c0       	rjmp	.+72     	; 0x2d0 <__EEPROM_REGION_LENGTH__+0x1d0>
 288:	c1 2c       	mov	r12, r1
 28a:	14 30       	cpi	r17, 0x04	; 4
 28c:	80 f0       	brcs	.+32     	; 0x2ae <__EEPROM_REGION_LENGTH__+0x1ae>
 28e:	11 e0       	ldi	r17, 0x01	; 1
 290:	10 0f       	add	r17, r16
 292:	e1 e0       	ldi	r30, 0x01	; 1
 294:	f0 e0       	ldi	r31, 0x00	; 0
 296:	ec 0f       	add	r30, r28
 298:	fd 1f       	adc	r31, r29
 29a:	e0 0f       	add	r30, r16
 29c:	f1 1d       	adc	r31, r1
 29e:	be 01       	movw	r22, r28
 2a0:	6b 59       	subi	r22, 0x9B	; 155
 2a2:	7f 4f       	sbci	r23, 0xFF	; 255
 2a4:	80 81       	ld	r24, Z
 2a6:	0e 94 5d 00 	call	0xba	; 0xba <base_4>
 2aa:	01 2f       	mov	r16, r17
 2ac:	10 e0       	ldi	r17, 0x00	; 0
 2ae:	e5 e6       	ldi	r30, 0x65	; 101
 2b0:	f0 e0       	ldi	r31, 0x00	; 0
 2b2:	ec 0f       	add	r30, r28
 2b4:	fd 1f       	adc	r31, r29
 2b6:	e1 0f       	add	r30, r17
 2b8:	f1 1d       	adc	r31, r1
 2ba:	80 81       	ld	r24, Z
 2bc:	8c 15       	cp	r24, r12
 2be:	69 f0       	breq	.+26     	; 0x2da <__EEPROM_REGION_LENGTH__+0x1da>
 2c0:	84 e0       	ldi	r24, 0x04	; 4
 2c2:	0e 94 cf 01 	call	0x39e	; 0x39e <LED_set>
 2c6:	e1 2c       	mov	r14, r1
 2c8:	d1 2c       	mov	r13, r1
 2ca:	1f ef       	ldi	r17, 0xFF	; 255
 2cc:	00 e0       	ldi	r16, 0x00	; 0
 2ce:	f1 2c       	mov	r15, r1
 2d0:	88 95       	sleep
 2d2:	5a cf       	rjmp	.-332    	; 0x188 <__EEPROM_REGION_LENGTH__+0x88>
 2d4:	82 e0       	ldi	r24, 0x02	; 2
 2d6:	c8 2e       	mov	r12, r24
 2d8:	d8 cf       	rjmp	.-80     	; 0x28a <__EEPROM_REGION_LENGTH__+0x18a>
 2da:	1f 5f       	subi	r17, 0xFF	; 255
 2dc:	8c 2d       	mov	r24, r12
 2de:	0e 94 cf 01 	call	0x39e	; 0x39e <LED_set>
 2e2:	e3 94       	inc	r14
 2e4:	de 10       	cpse	r13, r14
 2e6:	f4 cf       	rjmp	.-24     	; 0x2d0 <__EEPROM_REGION_LENGTH__+0x1d0>
 2e8:	8f ef       	ldi	r24, 0xFF	; 255
 2ea:	0e 94 cf 01 	call	0x39e	; 0x39e <LED_set>
 2ee:	ec cf       	rjmp	.-40     	; 0x2c8 <__EEPROM_REGION_LENGTH__+0x1c8>

000002f0 <__vector_7>:
 2f0:	1f 92       	push	r1
 2f2:	0f 92       	push	r0
 2f4:	0f b6       	in	r0, 0x3f	; 63
 2f6:	0f 92       	push	r0
 2f8:	11 24       	eor	r1, r1
 2fa:	2f 93       	push	r18
 2fc:	8f 93       	push	r24
 2fe:	9f 93       	push	r25
 300:	ef 93       	push	r30
 302:	ff 93       	push	r31
 304:	e0 e4       	ldi	r30, 0x40	; 64
 306:	f1 e0       	ldi	r31, 0x01	; 1
 308:	83 89       	ldd	r24, Z+19	; 0x13
 30a:	81 60       	ori	r24, 0x01	; 1
 30c:	83 8b       	std	Z+19, r24	; 0x13
 30e:	82 b1       	in	r24, 0x02	; 2
 310:	90 91 03 38 	lds	r25, 0x3803	; 0x803803 <key_state>
 314:	80 95       	com	r24
 316:	28 2f       	mov	r18, r24
 318:	29 27       	eor	r18, r25
 31a:	90 91 01 38 	lds	r25, 0x3801	; 0x803801 <ct0.3175>
 31e:	92 23       	and	r25, r18
 320:	89 2f       	mov	r24, r25
 322:	80 95       	com	r24
 324:	80 93 01 38 	sts	0x3801, r24	; 0x803801 <ct0.3175>
 328:	90 91 00 38 	lds	r25, 0x3800	; 0x803800 <__DATA_REGION_ORIGIN__>
 32c:	92 23       	and	r25, r18
 32e:	98 27       	eor	r25, r24
 330:	90 93 00 38 	sts	0x3800, r25	; 0x803800 <__DATA_REGION_ORIGIN__>
 334:	82 23       	and	r24, r18
 336:	89 23       	and	r24, r25
 338:	90 91 03 38 	lds	r25, 0x3803	; 0x803803 <key_state>
 33c:	98 27       	eor	r25, r24
 33e:	90 93 03 38 	sts	0x3803, r25	; 0x803803 <key_state>
 342:	20 91 03 38 	lds	r18, 0x3803	; 0x803803 <key_state>
 346:	90 91 02 38 	lds	r25, 0x3802	; 0x803802 <__data_end>
 34a:	82 23       	and	r24, r18
 34c:	89 2b       	or	r24, r25
 34e:	80 93 02 38 	sts	0x3802, r24	; 0x803802 <__data_end>
 352:	ff 91       	pop	r31
 354:	ef 91       	pop	r30
 356:	9f 91       	pop	r25
 358:	8f 91       	pop	r24
 35a:	2f 91       	pop	r18
 35c:	0f 90       	pop	r0
 35e:	0f be       	out	0x3f, r0	; 63
 360:	0f 90       	pop	r0
 362:	1f 90       	pop	r1
 364:	18 95       	reti

00000366 <input_get_key_press>:
 366:	f8 94       	cli
 368:	90 91 02 38 	lds	r25, 0x3802	; 0x803802 <__data_end>
 36c:	89 23       	and	r24, r25
 36e:	90 91 02 38 	lds	r25, 0x3802	; 0x803802 <__data_end>
 372:	98 27       	eor	r25, r24
 374:	90 93 02 38 	sts	0x3802, r25	; 0x803802 <__data_end>
 378:	78 94       	sei
 37a:	08 95       	ret

0000037c <input_init>:
 37c:	80 b1       	in	r24, 0x00	; 0
 37e:	83 70       	andi	r24, 0x03	; 3
 380:	80 b9       	out	0x00, r24	; 0
 382:	e0 e0       	ldi	r30, 0x00	; 0
 384:	f4 e0       	ldi	r31, 0x04	; 4
 386:	88 e0       	ldi	r24, 0x08	; 8
 388:	82 8b       	std	Z+18, r24	; 0x12
 38a:	83 8b       	std	Z+19, r24	; 0x13
 38c:	84 8b       	std	Z+20, r24	; 0x14
 38e:	85 8b       	std	Z+21, r24	; 0x15
 390:	86 8b       	std	Z+22, r24	; 0x16
 392:	87 8b       	std	Z+23, r24	; 0x17
 394:	08 95       	ret

00000396 <LED_init>:
 396:	88 b1       	in	r24, 0x08	; 8
 398:	8f 60       	ori	r24, 0x0F	; 15
 39a:	88 b9       	out	0x08, r24	; 8
 39c:	08 95       	ret

0000039e <LED_set>:
 39e:	87 30       	cpi	r24, 0x07	; 7
 3a0:	30 f4       	brcc	.+12     	; 0x3ae <LED_set+0x10>
 3a2:	e8 2f       	mov	r30, r24
 3a4:	f0 e0       	ldi	r31, 0x00	; 0
 3a6:	e2 59       	subi	r30, 0x92	; 146
 3a8:	fb 47       	sbci	r31, 0x7B	; 123
 3aa:	80 81       	ld	r24, Z
 3ac:	01 c0       	rjmp	.+2      	; 0x3b0 <LED_set+0x12>
 3ae:	80 e0       	ldi	r24, 0x00	; 0
 3b0:	80 95       	com	r24
 3b2:	89 b9       	out	0x09, r24	; 9
 3b4:	08 95       	ret

000003b6 <RTC_init>:
 3b6:	80 91 41 01 	lds	r24, 0x0141	; 0x800141 <CSWTCH.2+0x7f7cd3>
 3ba:	81 11       	cpse	r24, r1
 3bc:	fc cf       	rjmp	.-8      	; 0x3b6 <RTC_init>
 3be:	81 e0       	ldi	r24, 0x01	; 1
 3c0:	80 93 47 01 	sts	0x0147, r24	; 0x800147 <CSWTCH.2+0x7f7cd9>
 3c4:	80 e8       	ldi	r24, 0x80	; 128
 3c6:	80 93 40 01 	sts	0x0140, r24	; 0x800140 <CSWTCH.2+0x7f7cd2>
 3ca:	80 91 51 01 	lds	r24, 0x0151	; 0x800151 <CSWTCH.2+0x7f7ce3>
 3ce:	81 11       	cpse	r24, r1
 3d0:	fc cf       	rjmp	.-8      	; 0x3ca <RTC_init+0x14>
 3d2:	88 e0       	ldi	r24, 0x08	; 8
 3d4:	80 93 50 01 	sts	0x0150, r24	; 0x800150 <CSWTCH.2+0x7f7ce2>
 3d8:	08 95       	ret

000003da <RTC_PIT_enable>:
 3da:	80 91 51 01 	lds	r24, 0x0151	; 0x800151 <CSWTCH.2+0x7f7ce3>
 3de:	81 11       	cpse	r24, r1
 3e0:	fc cf       	rjmp	.-8      	; 0x3da <RTC_PIT_enable>
 3e2:	81 e0       	ldi	r24, 0x01	; 1
 3e4:	80 93 53 01 	sts	0x0153, r24	; 0x800153 <CSWTCH.2+0x7f7ce5>
 3e8:	80 93 52 01 	sts	0x0152, r24	; 0x800152 <CSWTCH.2+0x7f7ce4>
 3ec:	80 91 50 01 	lds	r24, 0x0150	; 0x800150 <CSWTCH.2+0x7f7ce2>
 3f0:	81 60       	ori	r24, 0x01	; 1
 3f2:	80 93 50 01 	sts	0x0150, r24	; 0x800150 <CSWTCH.2+0x7f7ce2>
 3f6:	08 95       	ret

000003f8 <__vector_6>:
 3f8:	18 95       	reti

000003fa <ccp_write_io>:
 3fa:	dc 01       	movw	r26, r24
 3fc:	28 ed       	ldi	r18, 0xD8	; 216
 3fe:	20 93 34 00 	sts	0x0034, r18	; 0x800034 <CSWTCH.2+0x7f7bc6>
 402:	6c 93       	st	X, r22
 404:	08 95       	ret

00000406 <_exit>:
 406:	f8 94       	cli

00000408 <__stop_program>:
 408:	ff cf       	rjmp	.-2      	; 0x408 <__stop_program>
